target datalayout = "e-m:e-p270:32:32-p271:32:32-p272:64:64-i64:64-i128:128-f80:128-n8:16:32:64-S128"
target triple = "x86_64-pc-linux-gnu"

; Function Attrs: null_pointer_is_valid sspstrong uwtable
define hidden zeroext i16 @dcerpc_tvb_get_ntohs(ptr noundef %0, i32 noundef %1, ptr noundef %2) #0 {
  %4 = alloca i16, align 2
  %5 = alloca ptr, align 8
  %6 = alloca i32, align 4
  %7 = alloca ptr, align 8
  store ptr %0, ptr %5, align 8
  store i32 %1, ptr %6, align 4
  store ptr %2, ptr %7, align 8
  %8 = load ptr, ptr %7, align 8
  %9 = getelementptr i8, ptr %8, i64 0
  %10 = load i8, ptr %9, align 1
  %11 = zext i8 %10 to i32
  %12 = and i32 %11, 16
  %13 = icmp ne i32 %12, 0
  br i1 %13, label %14, label %18

14:                                               ; preds = %3
  %15 = load ptr, ptr %5, align 8
  %16 = load i32, ptr %6, align 4
  %17 = call zeroext i16 @tvb_get_letohs(ptr noundef %15, i32 noundef %16)
  store i16 %17, ptr %4, align 2
  br label %22

18:                                               ; preds = %3
  %19 = load ptr, ptr %5, align 8
  %20 = load i32, ptr %6, align 4
  %21 = call zeroext i16 @tvb_get_ntohs(ptr noundef %19, i32 noundef %20)
  store i16 %21, ptr %4, align 2
  br label %22

22:                                               ; preds = %18, %14
  %23 = load i16, ptr %4, align 2
  ret i16 %23
}

; Function Attrs: null_pointer_is_valid sspstrong uwtable
define internal zeroext i1 @is_dcerpc(ptr noundef %0, i32 noundef %1, ptr noundef %2) #0 {
  %4 = alloca i1, align 1
  %5 = alloca ptr, align 8
  %6 = alloca i32, align 4
  %7 = alloca ptr, align 8
  %8 = alloca i8, align 1
  %9 = alloca i8, align 1
  %10 = alloca i8, align 1
  %11 = alloca [4 x i8], align 1
  %12 = alloca i16, align 2
  %13 = alloca i32, align 4
  store ptr %0, ptr %5, align 8
  store i32 %1, ptr %6, align 4
  store ptr %2, ptr %7, align 8
  call void @llvm.lifetime.start.p0(i64 1, ptr %8) #19
  call void @llvm.lifetime.start.p0(i64 1, ptr %9) #19
  call void @llvm.lifetime.start.p0(i64 1, ptr %10) #19
  call void @llvm.lifetime.start.p0(i64 4, ptr %11) #19
  call void @llvm.lifetime.start.p0(i64 2, ptr %12) #19
  %14 = load ptr, ptr %5, align 8
  %15 = load i32, ptr %6, align 4
  %16 = call zeroext i1 @tvb_bytes_exist(ptr noundef %14, i32 noundef %15, i32 noundef 16)
  br i1 %16, label %18, label %17

17:                                               ; preds = %3
  store i1 false, ptr %4, align 1
  store i32 1, ptr %13, align 4
  br label %80

18:                                               ; preds = %3
  %19 = load ptr, ptr %5, align 8
  %20 = load i32, ptr %6, align 4
  %21 = add i32 %20, 1
  store i32 %21, ptr %6, align 4
  %22 = call zeroext i8 @tvb_get_uint8(ptr noundef %19, i32 noundef %20)
  store i8 %22, ptr %8, align 1
  %23 = load i8, ptr %8, align 1
  %24 = zext i8 %23 to i32
  %25 = icmp ne i32 %24, 5
  br i1 %25, label %26, label %27

26:                                               ; preds = %18
  store i1 false, ptr %4, align 1
  store i32 1, ptr %13, align 4
  br label %80

27:                                               ; preds = %18
  %28 = load ptr, ptr %5, align 8
  %29 = load i32, ptr %6, align 4
  %30 = add i32 %29, 1
  store i32 %30, ptr %6, align 4
  %31 = call zeroext i8 @tvb_get_uint8(ptr noundef %28, i32 noundef %29)
  store i8 %31, ptr %9, align 1
  %32 = load i8, ptr %9, align 1
  %33 = zext i8 %32 to i32
  %34 = icmp ne i32 %33, 0
  br i1 %34, label %35, label %40

35:                                               ; preds = %27
  %36 = load i8, ptr %9, align 1
  %37 = zext i8 %36 to i32
  %38 = icmp ne i32 %37, 1
  br i1 %38, label %39, label %40

39:                                               ; preds = %35
  store i1 false, ptr %4, align 1
  store i32 1, ptr %13, align 4
  br label %80

40:                                               ; preds = %35, %27
  %41 = load ptr, ptr %5, align 8
  %42 = load i32, ptr %6, align 4
  %43 = add i32 %42, 1
  store i32 %43, ptr %6, align 4
  %44 = call zeroext i8 @tvb_get_uint8(ptr noundef %41, i32 noundef %42)
  store i8 %44, ptr %10, align 1
  %45 = load i8, ptr %10, align 1
  %46 = zext i8 %45 to i32
  %47 = icmp sgt i32 %46, 20
  br i1 %47, label %48, label %49

48:                                               ; preds = %40
  store i1 false, ptr %4, align 1
  store i32 1, ptr %13, align 4
  br label %80

49:                                               ; preds = %40
  %50 = load i32, ptr %6, align 4
  %51 = add i32 %50, 1
  store i32 %51, ptr %6, align 4
  %52 = load ptr, ptr %5, align 8
  %53 = getelementptr inbounds [4 x i8], ptr %11, i64 0, i64 0
  %54 = load i32, ptr %6, align 4
  %55 = call ptr @tvb_memcpy(ptr noundef %52, ptr noundef %53, i32 noundef %54, i64 noundef 4)
  %56 = getelementptr [4 x i8], ptr %11, i64 0, i64 0
  %57 = load i8, ptr %56, align 1
  %58 = zext i8 %57 to i32
  %59 = and i32 %58, 238
  %60 = icmp ne i32 %59, 0
  br i1 %60, label %61, label %62

61:                                               ; preds = %49
  store i1 false, ptr %4, align 1
  store i32 1, ptr %13, align 4
  br label %80

62:                                               ; preds = %49
  %63 = getelementptr [4 x i8], ptr %11, i64 0, i64 1
  %64 = load i8, ptr %63, align 1
  %65 = zext i8 %64 to i32
  %66 = icmp sgt i32 %65, 3
  br i1 %66, label %67, label %68

67:                                               ; preds = %62
  store i1 false, ptr %4, align 1
  store i32 1, ptr %13, align 4
  br label %80

68:                                               ; preds = %62
  %69 = load i32, ptr %6, align 4
  %70 = add i32 %69, 4
  store i32 %70, ptr %6, align 4
  %71 = load ptr, ptr %5, align 8
  %72 = load i32, ptr %6, align 4
  %73 = getelementptr inbounds [4 x i8], ptr %11, i64 0, i64 0
  %74 = call zeroext i16 @dcerpc_tvb_get_ntohs(ptr noundef %71, i32 noundef %72, ptr noundef %73)
  store i16 %74, ptr %12, align 2
  %75 = load i16, ptr %12, align 2
  %76 = zext i16 %75 to i64
  %77 = icmp ult i64 %76, 16
  br i1 %77, label %78, label %79

78:                                               ; preds = %68
  store i1 false, ptr %4, align 1
  store i32 1, ptr %13, align 4
  br label %80

79:                                               ; preds = %68
  store i1 true, ptr %4, align 1
  store i32 1, ptr %13, align 4
  br label %80

80:                                               ; preds = %79, %78, %67, %61, %48, %39, %26, %17
  call void @llvm.lifetime.end.p0(i64 2, ptr %12) #19
  call void @llvm.lifetime.end.p0(i64 4, ptr %11) #19
  call void @llvm.lifetime.end.p0(i64 1, ptr %10) #19
  call void @llvm.lifetime.end.p0(i64 1, ptr %9) #19
  call void @llvm.lifetime.end.p0(i64 1, ptr %8) #19
  %81 = load i1, ptr %4, align 1
  ret i1 %81
}