; Function Attrs: null_pointer_is_valid sspstrong uwtable
define internal fastcc zeroext i1 @is_dcerpc(ptr noundef %0, i32 noundef %1) unnamed_addr #0 {
  %3 = alloca [4 x i8], align 1
  call void @llvm.lifetime.start.p0(i64 4, ptr nonnull %3) #19
  %4 = tail call zeroext i1 @tvb_bytes_exist(ptr noundef %0, i32 noundef %1, i32 noundef 16)
  br i1 %4, label %5, label %29

5:                                                ; preds = %2
  %6 = tail call zeroext i8 @tvb_get_uint8(ptr noundef %0, i32 noundef %1)
  %.not = icmp eq i8 %6, 5
  br i1 %.not, label %7, label %29

7:                                                ; preds = %5
  %8 = add i32 %1, 1
  %9 = tail call zeroext i8 @tvb_get_uint8(ptr noundef %0, i32 noundef %8)
  %or.cond = icmp ugt i8 %9, 1
  br i1 %or.cond, label %29, label %10

10:                                               ; preds = %7
  %11 = add i32 %1, 2
  %12 = tail call zeroext i8 @tvb_get_uint8(ptr noundef %0, i32 noundef %11)
  %13 = icmp ugt i8 %12, 20
  br i1 %13, label %29, label %14

14:                                               ; preds = %10
  %15 = add i32 %1, 4
  %16 = call ptr @tvb_memcpy(ptr noundef %0, ptr noundef nonnull %3, i32 noundef %15, i64 noundef 4)
  %17 = load i8, ptr %3, align 1
  %18 = and i8 %17, -18
  %.not21 = icmp ne i8 %18, 0
  %19 = getelementptr inbounds nuw i8, ptr %3, i64 1
  %20 = load i8, ptr %19, align 1
  %21 = icmp ugt i8 %20, 3
  %or.cond24 = select i1 %.not21, i1 true, i1 %21
  br i1 %or.cond24, label %29, label %22

22:                                               ; preds = %14
  %23 = add i32 %1, 8
  %.not.i = icmp samesign ult i8 %17, 16
  br i1 %.not.i, label %26, label %24

24:                                               ; preds = %22
  %25 = call zeroext i16 @tvb_get_letohs(ptr noundef %0, i32 noundef %23)
  br label %dcerpc_tvb_get_ntohs.exit

26:                                               ; preds = %22
  %27 = call zeroext i16 @tvb_get_ntohs(ptr noundef %0, i32 noundef %23)
  br label %dcerpc_tvb_get_ntohs.exit

dcerpc_tvb_get_ntohs.exit:                        ; preds = %24, %26
  %.0.i = phi i16 [ %25, %24 ], [ %27, %26 ]
  %28 = icmp ugt i16 %.0.i, 15
  br label %29

29:                                               ; preds = %dcerpc_tvb_get_ntohs.exit, %14, %10, %7, %5, %2
  %.0 = phi i1 [ false, %2 ], [ false, %5 ], [ false, %7 ], [ false, %10 ], [ false, %14 ], [ %28, %dcerpc_tvb_get_ntohs.exit ]
  call void @llvm.lifetime.end.p0(i64 4, ptr nonnull %3) #19
  ret i1 %.0
}